target datalayout = "e-m:e-p270:32:32-p271:32:32-p272:64:64-i64:64-i128:128-f80:128-n8:16:32:64-S128"
target triple = "x86_64-pc-linux-gnu"

%struct._opensafety_packet_info = type { %struct._opensafety_packet_frame, i16, i16, i16, i16, i8, i8, i8, i8, i32, [6 x i8], i8, %struct._opensafety_packet_crc, %union.anon }
%struct._opensafety_packet_frame = type { i8, i16, i16, i32, i16, ptr }
%struct._opensafety_packet_crc = type { i8, i16, i16, i8, i8 }
%union.anon = type { ptr }

@hf_oss_msg = internal global i32 0, align 4
@hf_oss_msg_direction = internal global i32 0, align 4
@hf_oss_spdo_direction = internal global i32 0, align 4

; Function Attrs: null_pointer_is_valid sspstrong uwtable
define internal ptr @opensafety_packet_response(ptr noundef %0, ptr noundef %1, ptr noundef %2, i1 noundef zeroext %3) #0 {
  %5 = alloca ptr, align 8
  %6 = alloca ptr, align 8
  %7 = alloca ptr, align 8
  %8 = alloca i8, align 1
  %9 = alloca ptr, align 8
  %10 = alloca i8, align 1
  store ptr %0, ptr %5, align 8
  store ptr %1, ptr %6, align 8
  store ptr %2, ptr %7, align 8
  %11 = zext i1 %3 to i8
  store i8 %11, ptr %8, align 1
  call void @llvm.lifetime.start.p0(i64 8, ptr %9) #12
  store ptr null, ptr %9, align 8
  call void @llvm.lifetime.start.p0(i64 1, ptr %10) #12
  store i8 0, ptr %10, align 1
  %12 = load ptr, ptr %7, align 8
  %13 = getelementptr inbounds nuw %struct._opensafety_packet_info, ptr %12, i32 0, i32 7
  %14 = load i8, ptr %13, align 2
  %15 = zext i8 %14 to i32
  %16 = icmp ne i32 %15, 192
  br i1 %16, label %17, label %28

17:                                               ; preds = %4
  %18 = load ptr, ptr %6, align 8
  %19 = load i32, ptr @hf_oss_msg, align 4
  %20 = load ptr, ptr %5, align 8
  %21 = load ptr, ptr %7, align 8
  %22 = getelementptr inbounds nuw %struct._opensafety_packet_info, ptr %21, i32 0, i32 0
  %23 = getelementptr inbounds nuw %struct._opensafety_packet_frame, ptr %22, i32 0, i32 1
  %24 = load i16, ptr %23, align 2
  %25 = zext i16 %24 to i32
  %26 = add i32 1, %25
  %27 = call ptr @proto_tree_add_item(ptr noundef %18, i32 noundef %19, ptr noundef %20, i32 noundef %26, i32 noundef 1, i32 noundef 0)
  br label %53

28:                                               ; preds = %4
  %29 = load ptr, ptr %5, align 8
  %30 = load ptr, ptr %7, align 8
  %31 = getelementptr inbounds nuw %struct._opensafety_packet_info, ptr %30, i32 0, i32 0
  %32 = getelementptr inbounds nuw %struct._opensafety_packet_frame, ptr %31, i32 0, i32 1
  %33 = load i16, ptr %32, align 2
  %34 = zext i16 %33 to i32
  %35 = add i32 1, %34
  %36 = call zeroext i8 @tvb_get_uint8(ptr noundef %29, i32 noundef %35)
  %37 = zext i8 %36 to i32
  %38 = and i32 %37, 252
  %39 = and i32 %38, 248
  %40 = trunc i32 %39 to i8
  store i8 %40, ptr %10, align 1
  %41 = load ptr, ptr %6, align 8
  %42 = load i32, ptr @hf_oss_msg, align 4
  %43 = load ptr, ptr %5, align 8
  %44 = load ptr, ptr %7, align 8
  %45 = getelementptr inbounds nuw %struct._opensafety_packet_info, ptr %44, i32 0, i32 0
  %46 = getelementptr inbounds nuw %struct._opensafety_packet_frame, ptr %45, i32 0, i32 1
  %47 = load i16, ptr %46, align 2
  %48 = zext i16 %47 to i32
  %49 = add i32 1, %48
  %50 = load i8, ptr %10, align 1
  %51 = zext i8 %50 to i32
  %52 = call ptr @proto_tree_add_uint(ptr noundef %41, i32 noundef %42, ptr noundef %43, i32 noundef %49, i32 noundef 1, i32 noundef %51)
  br label %53

53:                                               ; preds = %28, %17
  %54 = load ptr, ptr %6, align 8
  %55 = load ptr, ptr %7, align 8
  %56 = getelementptr inbounds nuw %struct._opensafety_packet_info, ptr %55, i32 0, i32 7
  %57 = load i8, ptr %56, align 2
  %58 = zext i8 %57 to i32
  %59 = icmp ne i32 %58, 192
  br i1 %59, label %60, label %62

60:                                               ; preds = %53
  %61 = load i32, ptr @hf_oss_msg_direction, align 4
  br label %64

62:                                               ; preds = %53
  %63 = load i32, ptr @hf_oss_spdo_direction, align 4
  br label %64

64:                                               ; preds = %62, %60
  %65 = phi i32 [ %61, %60 ], [ %63, %62 ]
  %66 = load ptr, ptr %5, align 8
  %67 = load ptr, ptr %7, align 8
  %68 = getelementptr inbounds nuw %struct._opensafety_packet_info, ptr %67, i32 0, i32 0
  %69 = getelementptr inbounds nuw %struct._opensafety_packet_frame, ptr %68, i32 0, i32 1
  %70 = load i16, ptr %69, align 2
  %71 = zext i16 %70 to i32
  %72 = add i32 1, %71
  %73 = call ptr @proto_tree_add_item(ptr noundef %54, i32 noundef %65, ptr noundef %66, i32 noundef %72, i32 noundef 1, i32 noundef 0)
  store ptr %73, ptr %9, align 8
  %74 = load i8, ptr %8, align 1, !range !6, !noundef !7
  %75 = trunc i8 %74 to i1
  br i1 %75, label %79, label %76

76:                                               ; preds = %64
  %77 = load ptr, ptr %7, align 8
  %78 = getelementptr inbounds nuw %struct._opensafety_packet_info, ptr %77, i32 0, i32 5
  store i8 1, ptr %78, align 8
  br label %79

79:                                               ; preds = %76, %64
  %80 = load ptr, ptr %9, align 8
  call void @llvm.lifetime.end.p0(i64 1, ptr %10) #12
  call void @llvm.lifetime.end.p0(i64 8, ptr %9) #12
  ret ptr %80
}