; Function Attrs: null_pointer_is_valid sspstrong uwtable
define internal fastcc ptr @opensafety_packet_response(ptr noundef %0, ptr noundef %1, ptr noundef captures(none) %2, i1 noundef zeroext %3) unnamed_addr #0 {
  %5 = getelementptr inbounds nuw i8, ptr %2, i64 34
  %6 = load i8, ptr %5, align 2
  %.not = icmp eq i8 %6, -64
  br i1 %.not, label %14, label %7

7:                                                ; preds = %4
  %8 = load i32, ptr @hf_oss_msg, align 4
  %9 = getelementptr inbounds nuw i8, ptr %2, i64 2
  %10 = load i16, ptr %9, align 2
  %11 = zext i16 %10 to i32
  %12 = add nuw nsw i32 %11, 1
  %13 = tail call ptr @proto_tree_add_item(ptr noundef %1, i32 noundef %8, ptr noundef %0, i32 noundef %12, i32 noundef 1, i32 noundef 0)
  br label %27

14:                                               ; preds = %4
  %15 = getelementptr inbounds nuw i8, ptr %2, i64 2
  %16 = load i16, ptr %15, align 2
  %17 = zext i16 %16 to i32
  %18 = add nuw nsw i32 %17, 1
  %19 = tail call zeroext i8 @tvb_get_uint8(ptr noundef %0, i32 noundef %18)
  %20 = and i8 %19, -8
  %21 = load i32, ptr @hf_oss_msg, align 4
  %22 = load i16, ptr %15, align 2
  %23 = zext i16 %22 to i32
  %24 = add nuw nsw i32 %23, 1
  %25 = zext i8 %20 to i32
  %26 = tail call ptr @proto_tree_add_uint(ptr noundef %1, i32 noundef %21, ptr noundef %0, i32 noundef %24, i32 noundef 1, i32 noundef %25)
  br label %27

27:                                               ; preds = %14, %7
  %28 = load i8, ptr %5, align 2
  %.not16 = icmp eq i8 %28, -64
  %29 = load i32, ptr @hf_oss_msg_direction, align 4
  %30 = load i32, ptr @hf_oss_spdo_direction, align 4
  %31 = select i1 %.not16, i32 %30, i32 %29
  %32 = getelementptr inbounds nuw i8, ptr %2, i64 2
  %33 = load i16, ptr %32, align 2
  %34 = zext i16 %33 to i32
  %35 = add nuw nsw i32 %34, 1
  %36 = tail call ptr @proto_tree_add_item(ptr noundef %1, i32 noundef %31, ptr noundef %0, i32 noundef %35, i32 noundef 1, i32 noundef 0)
  br i1 %3, label %39, label %37

37:                                               ; preds = %27
  %38 = getelementptr inbounds nuw i8, ptr %2, i64 32
  store i8 1, ptr %38, align 8
  br label %39

39:                                               ; preds = %37, %27
  ret ptr %36
}